target datalayout = "e-m:e-p270:32:32-p271:32:32-p272:64:64-i64:64-i128:128-f80:128-n8:16:32:64-S128"
target triple = "x86_64-pc-linux-gnu"

%struct.GetByteContext = type { ptr, ptr, ptr }

; Function Attrs: alwaysinline nounwind uwtable
define internal i32 @bytestream2_get_buffer(ptr noundef %0, ptr noundef %1, i32 noundef %2) #5 {
  %4 = alloca ptr, align 8
  %5 = alloca ptr, align 8
  %6 = alloca i32, align 4
  %7 = alloca i32, align 4
  store ptr %0, ptr %4, align 8, !tbaa !56
  store ptr %1, ptr %5, align 8, !tbaa !43
  store i32 %2, ptr %6, align 4, !tbaa !47
  call void @llvm.lifetime.start.p0(i64 4, ptr %7) #8
  %8 = load ptr, ptr %4, align 8, !tbaa !56
  %9 = getelementptr inbounds nuw %struct.GetByteContext, ptr %8, i32 0, i32 1
  %10 = load ptr, ptr %9, align 8, !tbaa !61
  %11 = load ptr, ptr %4, align 8, !tbaa !56
  %12 = getelementptr inbounds nuw %struct.GetByteContext, ptr %11, i32 0, i32 0
  %13 = load ptr, ptr %12, align 8, !tbaa !58
  %14 = ptrtoint ptr %10 to i64
  %15 = ptrtoint ptr %13 to i64
  %16 = sub i64 %14, %15
  %17 = load i32, ptr %6, align 4, !tbaa !47
  %18 = zext i32 %17 to i64
  %19 = icmp sgt i64 %16, %18
  br i1 %19, label %20, label %23

20:                                               ; preds = %3
  %21 = load i32, ptr %6, align 4, !tbaa !47
  %22 = zext i32 %21 to i64
  br label %33

23:                                               ; preds = %3
  %24 = load ptr, ptr %4, align 8, !tbaa !56
  %25 = getelementptr inbounds nuw %struct.GetByteContext, ptr %24, i32 0, i32 1
  %26 = load ptr, ptr %25, align 8, !tbaa !61
  %27 = load ptr, ptr %4, align 8, !tbaa !56
  %28 = getelementptr inbounds nuw %struct.GetByteContext, ptr %27, i32 0, i32 0
  %29 = load ptr, ptr %28, align 8, !tbaa !58
  %30 = ptrtoint ptr %26 to i64
  %31 = ptrtoint ptr %29 to i64
  %32 = sub i64 %30, %31
  br label %33

33:                                               ; preds = %23, %20
  %34 = phi i64 [ %22, %20 ], [ %32, %23 ]
  %35 = trunc i64 %34 to i32
  store i32 %35, ptr %7, align 4, !tbaa !47
  %36 = load ptr, ptr %5, align 8, !tbaa !43
  %37 = load ptr, ptr %4, align 8, !tbaa !56
  %38 = getelementptr inbounds nuw %struct.GetByteContext, ptr %37, i32 0, i32 0
  %39 = load ptr, ptr %38, align 8, !tbaa !58
  %40 = load i32, ptr %7, align 4, !tbaa !47
  %41 = zext i32 %40 to i64
  call void @llvm.memcpy.p0.p0.i64(ptr align 1 %36, ptr align 1 %39, i64 %41, i1 false)
  %42 = load i32, ptr %7, align 4, !tbaa !47
  %43 = load ptr, ptr %4, align 8, !tbaa !56
  %44 = getelementptr inbounds nuw %struct.GetByteContext, ptr %43, i32 0, i32 0
  %45 = load ptr, ptr %44, align 8, !tbaa !58
  %46 = zext i32 %42 to i64
  %47 = getelementptr inbounds nuw i8, ptr %45, i64 %46
  store ptr %47, ptr %44, align 8, !tbaa !58
  %48 = load i32, ptr %7, align 4, !tbaa !47
  call void @llvm.lifetime.end.p0(i64 4, ptr %7) #8
  ret i32 %48
}

; Function Attrs: nounwind uwtable
define internal i32 @decode_copy(ptr noundef %0, ptr noundef %1, i32 noundef %2, i32 noundef %3) #1 {
  %5 = alloca i32, align 4
  %6 = alloca ptr, align 8
  %7 = alloca ptr, align 8
  %8 = alloca i32, align 4
  %9 = alloca i32, align 4
  %10 = alloca i32, align 4
  %11 = alloca i32, align 4
  store ptr %0, ptr %6, align 8, !tbaa !56
  store ptr %1, ptr %7, align 8, !tbaa !43
  store i32 %2, ptr %8, align 4, !tbaa !47
  store i32 %3, ptr %9, align 4, !tbaa !47
  call void @llvm.lifetime.start.p0(i64 4, ptr %10) #8
  %12 = load i32, ptr %8, align 4, !tbaa !47
  %13 = load i32, ptr %9, align 4, !tbaa !47
  %14 = mul nsw i32 %12, %13
  store i32 %14, ptr %10, align 4, !tbaa !47
  %15 = load ptr, ptr %6, align 8, !tbaa !56
  %16 = load ptr, ptr %7, align 8, !tbaa !43
  %17 = load i32, ptr %10, align 4, !tbaa !47
  %18 = call i32 @bytestream2_get_buffer(ptr noundef %15, ptr noundef %16, i32 noundef %17)
  %19 = load i32, ptr %10, align 4, !tbaa !47
  %20 = icmp ne i32 %18, %19
  br i1 %20, label %21, label %22

21:                                               ; preds = %4
  store i32 -1094995529, ptr %5, align 4
  store i32 1, ptr %11, align 4
  br label %23

22:                                               ; preds = %4
  store i32 0, ptr %5, align 4
  store i32 1, ptr %11, align 4
  br label %23

23:                                               ; preds = %22, %21
  call void @llvm.lifetime.end.p0(i64 4, ptr %10) #8
  %24 = load i32, ptr %5, align 4
  ret i32 %24
}