; Function Attrs: mustprogress nofree norecurse nosync nounwind willreturn memory(readwrite, inaccessiblemem: none) uwtable
define internal range(i32 -1094995529, 1) i32 @decode_copy(ptr noundef captures(none) %0, ptr noundef writeonly captures(none) %1, i32 noundef %2, i32 noundef %3) #6 {
  %5 = mul nsw i32 %3, %2
  %6 = getelementptr inbounds nuw i8, ptr %0, i64 8
  %7 = load ptr, ptr %6, align 8, !tbaa !41
  %8 = load ptr, ptr %0, align 8, !tbaa !38
  %9 = ptrtoint ptr %7 to i64
  %10 = ptrtoint ptr %8 to i64
  %11 = sub i64 %9, %10
  %12 = zext i32 %5 to i64
  %13 = tail call i64 @llvm.smin.i64(i64 %11, i64 %12)
  %14 = trunc i64 %13 to i32
  %15 = and i64 %13, 4294967295
  tail call void @llvm.memcpy.p0.p0.i64(ptr align 1 %1, ptr align 1 %8, i64 %15, i1 false)
  %16 = load ptr, ptr %0, align 8, !tbaa !38
  %17 = getelementptr inbounds nuw i8, ptr %16, i64 %15
  store ptr %17, ptr %0, align 8, !tbaa !38
  %.not = icmp eq i32 %5, %14
  %. = select i1 %.not, i32 0, i32 -1094995529
  ret i32 %.
}